(lp1
(lp2
I7
aI0
aI0
aa(lp3
I16
aI0
aI0
aa(lp4
I24
aI0
aI0
aa(lp5
I24
aI0
aI0
aa(lp6
I2
aI0
aI0
aa(lp7
I13
aI0
aI0
aa(lp8
I0
aI0
aI0
aa(lp9
I20
aI0
aI0
aa(lp10
I13
aI0
aI0
aa(lp11
I14
aI0
aI0
aa(lp12
I22
aI0
aI0
aa(lp13
I6
aI0
aI0
aa(lp14
I11
aI0
aI0
aa(lp15
I6
aI0
aI0
aa(lp16
I6
aI0
aI0
aa(lp17
I5
aI0
aI0
aa(lp18
I13
aI0
aI0
aa(lp19
I7
aI0
aI0
aa(lp20
I11
aI0
aI0
aa(lp21
I2
aI0
aI0
aa(lp22
I13
aI0
aI0
aa(lp23
I5
aI0
aI0
aa(lp24
I8
aI0
aI0
aa(lp25
I2
aI0
aI0
aa(lp26
I0
aI0
aI0
aa(lp27
I4
aI0
aI0
aa(lp28
I2
aI0
aI0
aa(lp29
I4
aI0
aI0
aa(lp30
I1
aI0
aI0
aa(lp31
I7
aI0
aI0
aa.