(lp1
(lp2
I6
aI0
aI0
aa(lp3
I8
aI0
aI0
aa(lp4
I2
aI0
aI0
aa(lp5
I9
aI0
aI0
aa(lp6
I8
aI0
aI0
aa(lp7
I1
aI0
aI0
aa(lp8
I18
aI0
aI0
aa(lp9
I10
aI0
aI0
aa(lp10
I1
aI0
aI0
aa(lp11
I8
aI0
aI0
aa(lp12
I13
aI0
aI0
aa(lp13
I4
aI0
aI0
aa(lp14
I2
aI0
aI0
aa(lp15
I8
aI0
aI0
aa(lp16
I4
aI0
aI0
aa(lp17
I10
aI0
aI0
aa(lp18
I17
aI0
aI0
aa(lp19
I10
aI0
aI0
aa(lp20
I12
aI0
aI0
aa(lp21
I5
aI0
aI0
aa(lp22
I14
aI0
aI0
aa(lp23
I5
aI0
aI0
aa(lp24
I19
aI0
aI0
aa(lp25
I1
aI0
aI0
aa(lp26
I3
aI0
aI0
aa(lp27
I12
aI0
aI0
aa(lp28
I7
aI0
aI0
aa(lp29
I6
aI0
aI0
aa(lp30
I0
aI0
aI0
aa(lp31
I3
aI0
aI0
aa.