(lp1
(lp2
I20
aI0
aI0
aa(lp3
I1
aI0
aI0
aa(lp4
I6
aI0
aI0
aa(lp5
I6
aI0
aI0
aa(lp6
I9
aI0
aI0
aa(lp7
I1
aI0
aI0
aa(lp8
I0
aI0
aI0
aa(lp9
I6
aI0
aI0
aa(lp10
I0
aI0
aI0
aa(lp11
I7
aI0
aI0
aa(lp12
I9
aI0
aI0
aa(lp13
I1
aI0
aI0
aa(lp14
I3
aI0
aI0
aa(lp15
I8
aI0
aI0
aa(lp16
I8
aI0
aI0
aa(lp17
I7
aI0
aI0
aa(lp18
I2
aI0
aI0
aa(lp19
I5
aI0
aI0
aa(lp20
I24
aI0
aI0
aa(lp21
I11
aI0
aI0
aa(lp22
I7
aI0
aI0
aa(lp23
I8
aI0
aI0
aa(lp24
I0
aI0
aI0
aa(lp25
I2
aI0
aI0
aa(lp26
I1
aI0
aI0
aa(lp27
I3
aI0
aI0
aa(lp28
I13
aI0
aI0
aa.