(lp1
(lp2
I7
aI0
aI0
aa(lp3
I3
aI0
aI0
aa(lp4
I10
aI0
aI0
aa(lp5
I19
aI0
aI0
aa(lp6
I5
aI0
aI0
aa(lp7
I7
aI0
aI0
aa(lp8
I8
aI0
aI0
aa(lp9
I6
aI0
aI0
aa(lp10
I4
aI0
aI0
aa(lp11
I8
aI0
aI0
aa(lp12
I2
aI0
aI0
aa(lp13
I33
aI0
aI0
aa(lp14
I7
aI0
aI0
aa(lp15
I10
aI0
aI0
aa(lp16
I24
aI0
aI0
aa(lp17
I4
aI0
aI0
aa(lp18
I71
aI0
aI0
aa(lp19
I10
aI0
aI0
aa(lp20
I7
aI0
aI0
aa(lp21
I14
aI0
aI0
aa(lp22
I2
aI0
aI0
aa(lp23
I7
aI0
aI0
aa(lp24
I8
aI0
aI0
aa(lp25
I30
aI0
aI0
aa(lp26
I5
aI0
aI0
aa(lp27
I7
aI0
aI0
aa(lp28
I14
aI0
aI0
aa(lp29
I17
aI0
aI0
aa.