(lp1
(lp2
I7
aI0
aI0
aa(lp3
I29
aI0
aI0
aa(lp4
I12
aI0
aI0
aa(lp5
I2
aI0
aI0
aa(lp6
I5
aI0
aI0
aa(lp7
I6
aI0
aI0
aa(lp8
I0
aI0
aI0
aa(lp9
I4
aI0
aI0
aa(lp10
I1
aI0
aI0
aa(lp11
I6
aI0
aI0
aa(lp12
I5
aI0
aI0
aa(lp13
I5
aI0
aI0
aa(lp14
I9
aI0
aI0
aa(lp15
I13
aI0
aI0
aa(lp16
I1
aI0
aI0
aa(lp17
I23
aI0
aI0
aa(lp18
I3
aI0
aI0
aa(lp19
I1
aI0
aI0
aa(lp20
I5
aI0
aI0
aa(lp21
I10
aI0
aI0
aa(lp22
I12
aI0
aI0
aa(lp23
I15
aI0
aI0
aa(lp24
I6
aI0
aI0
aa(lp25
I1
aI0
aI0
aa(lp26
I7
aI0
aI0
aa(lp27
I11
aI0
aI0
aa(lp28
I6
aI0
aI0
aa(lp29
I9
aI0
aI0
aa.