(lp1
(lp2
I23
aI0
aI0
aa(lp3
I12
aI0
aI0
aa(lp4
I17
aI0
aI0
aa(lp5
I2
aI0
aI0
aa(lp6
I19
aI0
aI0
aa(lp7
I31
aI0
aI0
aa(lp8
I0
aI0
aI0
aa(lp9
I10
aI0
aI0
aa(lp10
I13
aI0
aI0
aa(lp11
I25
aI0
aI0
aa(lp12
I4
aI0
aI0
aa(lp13
I9
aI0
aI0
aa(lp14
I13
aI0
aI0
aa(lp15
I7
aI0
aI0
aa(lp16
I8
aI0
aI0
aa(lp17
I8
aI0
aI0
aa(lp18
I8
aI0
aI0
aa(lp19
I6
aI0
aI0
aa(lp20
I22
aI0
aI0
aa(lp21
I7
aI0
aI0
aa(lp22
I10
aI0
aI0
aa(lp23
I1
aI0
aI0
aa(lp24
I13
aI0
aI0
aa(lp25
I16
aI0
aI0
aa(lp26
I18
aI0
aI0
aa(lp27
I0
aI0
aI0
aa(lp28
I28
aI0
aI0
aa(lp29
I12
aI0
aI0
aa.