(lp1
(lp2
I5
aI0
aI0
aa(lp3
I10
aI0
aI0
aa(lp4
I2
aI0
aI0
aa(lp5
I12
aI0
aI0
aa(lp6
I5
aI0
aI0
aa(lp7
I6
aI0
aI0
aa(lp8
I9
aI0
aI0
aa(lp9
I20
aI0
aI0
aa(lp10
I5
aI0
aI0
aa(lp11
I2
aI0
aI0
aa(lp12
I13
aI0
aI0
aa(lp13
I9
aI0
aI0
aa(lp14
I20
aI0
aI0
aa(lp15
I11
aI0
aI0
aa(lp16
I9
aI0
aI0
aa(lp17
I3
aI0
aI0
aa(lp18
I4
aI0
aI0
aa(lp19
I32
aI0
aI0
aa(lp20
I8
aI0
aI0
aa(lp21
I4
aI0
aI0
aa(lp22
I16
aI0
aI0
aa(lp23
I11
aI0
aI0
aa(lp24
I5
aI0
aI0
aa(lp25
I2
aI0
aI0
aa(lp26
I2
aI0
aI0
aa(lp27
I1
aI0
aI0
aa(lp28
I7
aI0
aI0
aa(lp29
I5
aI0
aI0
aa(lp30
I7
aI0
aI0
aa.